; ModuleID = '22/122.c'
source_filename = "22/122.c"
target datalayout = "e-m:e-p270:32:32-p271:32:32-p272:64:64-i64:64-f80:128-n8:16:32:64-S128"
target triple = "x86_64-pc-linux-gnu"

@.str = private unnamed_addr constant [3 x i8] c"%d\00", align 1
@.str.1 = private unnamed_addr constant [4 x i8] c"No\0A\00", align 1
@.str.2 = private unnamed_addr constant [4 x i8] c"%d\0A\00", align 1

; Function Attrs: noinline nounwind uwtable
define dso_local void @main() #0 {
  %1 = alloca [301 x i32], align 16
  %2 = alloca i32, align 4
  %3 = alloca i32, align 4
  %4 = alloca i32, align 4
  %5 = alloca i8, align 1
  store i32 0, i32* %4, align 4
  %6 = getelementptr inbounds [301 x i32], [301 x i32]* %1, i64 0, i64 0
  %7 = call i32 (i8*, ...) @__isoc99_scanf(i8* getelementptr inbounds ([3 x i8], [3 x i8]* @.str, i64 0, i64 0), i32* %6)
  %8 = getelementptr inbounds [301 x i32], [301 x i32]* %1, i64 0, i64 0
  %9 = load i32, i32* %8, align 16
  store i32 %9, i32* %3, align 4
  store i32 1, i32* %2, align 4
  br label %10

10:                                               ; preds = %56, %0
  %11 = call i32 @getchar()
  %12 = trunc i32 %11 to i8
  store i8 %12, i8* %5, align 1
  %13 = load i8, i8* %5, align 1
  %14 = sext i8 %13 to i32
  %15 = icmp eq i32 %14, 10
  br i1 %15, label %16, label %17

16:                                               ; preds = %10
  br label %59

17:                                               ; preds = %10
  %18 = load i32, i32* %2, align 4
  %19 = sext i32 %18 to i64
  %20 = getelementptr inbounds [301 x i32], [301 x i32]* %1, i64 0, i64 %19
  %21 = call i32 (i8*, ...) @__isoc99_scanf(i8* getelementptr inbounds ([3 x i8], [3 x i8]* @.str, i64 0, i64 0), i32* %20)
  %22 = load i32, i32* %2, align 4
  %23 = sext i32 %22 to i64
  %24 = getelementptr inbounds [301 x i32], [301 x i32]* %1, i64 0, i64 %23
  %25 = load i32, i32* %24, align 4
  %26 = load i32, i32* %3, align 4
  %27 = icmp sge i32 %25, %26
  br i1 %27, label %28, label %42

28:                                               ; preds = %17
  %29 = load i32, i32* %2, align 4
  %30 = sext i32 %29 to i64
  %31 = getelementptr inbounds [301 x i32], [301 x i32]* %1, i64 0, i64 %30
  %32 = load i32, i32* %31, align 4
  %33 = load i32, i32* %3, align 4
  %34 = icmp sgt i32 %32, %33
  br i1 %34, label %35, label %41

35:                                               ; preds = %28
  %36 = load i32, i32* %3, align 4
  store i32 %36, i32* %4, align 4
  %37 = load i32, i32* %2, align 4
  %38 = sext i32 %37 to i64
  %39 = getelementptr inbounds [301 x i32], [301 x i32]* %1, i64 0, i64 %38
  %40 = load i32, i32* %39, align 4
  store i32 %40, i32* %3, align 4
  br label %41

41:                                               ; preds = %35, %28
  br label %55

42:                                               ; preds = %17
  %43 = load i32, i32* %2, align 4
  %44 = sext i32 %43 to i64
  %45 = getelementptr inbounds [301 x i32], [301 x i32]* %1, i64 0, i64 %44
  %46 = load i32, i32* %45, align 4
  %47 = load i32, i32* %4, align 4
  %48 = icmp sge i32 %46, %47
  br i1 %48, label %49, label %54

49:                                               ; preds = %42
  %50 = load i32, i32* %2, align 4
  %51 = sext i32 %50 to i64
  %52 = getelementptr inbounds [301 x i32], [301 x i32]* %1, i64 0, i64 %51
  %53 = load i32, i32* %52, align 4
  store i32 %53, i32* %4, align 4
  br label %54

54:                                               ; preds = %49, %42
  br label %55

55:                                               ; preds = %54, %41
  br label %56

56:                                               ; preds = %55
  %57 = load i32, i32* %2, align 4
  %58 = add nsw i32 %57, 1
  store i32 %58, i32* %2, align 4
  br label %10

59:                                               ; preds = %16
  %60 = load i32, i32* %2, align 4
  %61 = icmp eq i32 %60, 1
  br i1 %61, label %65, label %62

62:                                               ; preds = %59
  %63 = load i32, i32* %4, align 4
  %64 = icmp eq i32 %63, 0
  br i1 %64, label %65, label %67

65:                                               ; preds = %62, %59
  %66 = call i32 (i8*, ...) @printf(i8* getelementptr inbounds ([4 x i8], [4 x i8]* @.str.1, i64 0, i64 0))
  br label %70

67:                                               ; preds = %62
  %68 = load i32, i32* %4, align 4
  %69 = call i32 (i8*, ...) @printf(i8* getelementptr inbounds ([4 x i8], [4 x i8]* @.str.2, i64 0, i64 0), i32 %68)
  br label %70

70:                                               ; preds = %67, %65
  ret void
}

declare dso_local i32 @__isoc99_scanf(i8*, ...) #1

declare dso_local i32 @getchar() #1

declare dso_local i32 @printf(i8*, ...) #1


!llvm.module.flags = !{!0}
!llvm.ident = !{!1}

!0 = !{i32 1, !"wchar_size", i32 4}
!1 = !{!"clang version 10.0.0-4ubuntu1 "}
